; ModuleID = '29/1832.c'
source_filename = "29/1832.c"
target datalayout = "e-m:e-p270:32:32-p271:32:32-p272:64:64-i64:64-f80:128-n8:16:32:64-S128"
target triple = "x86_64-pc-linux-gnu"

@.str = private unnamed_addr constant [3 x i8] c"%d\00", align 1
@.str.1 = private unnamed_addr constant [6 x i8] c"%.3f\0A\00", align 1

; Function Attrs: noinline nounwind uwtable
define dso_local i32 @main() #0 {
  %1 = alloca i32, align 4
  %2 = alloca i32, align 4
  %3 = alloca i32, align 4
  %4 = alloca i32, align 4
  %5 = alloca i32, align 4
  %6 = alloca i32, align 4
  %7 = alloca i32, align 4
  %8 = alloca double, align 8
  store i32 0, i32* %1, align 4
  store double 0.000000e+00, double* %8, align 8
  %9 = call i32 (i8*, ...) @__isoc99_scanf(i8* getelementptr inbounds ([3 x i8], [3 x i8]* @.str, i64 0, i64 0), i32* %2)
  store i32 1, i32* %6, align 4
  br label %10

10:                                               ; preds = %41, %0
  %11 = load i32, i32* %6, align 4
  %12 = load i32, i32* %2, align 4
  %13 = icmp sle i32 %11, %12
  br i1 %13, label %14, label %44

14:                                               ; preds = %10
  store double 0.000000e+00, double* %8, align 8
  %15 = call i32 (i8*, ...) @__isoc99_scanf(i8* getelementptr inbounds ([3 x i8], [3 x i8]* @.str, i64 0, i64 0), i32* %3)
  store i32 1, i32* %4, align 4
  store i32 1, i32* %5, align 4
  store i32 1, i32* %7, align 4
  br label %16

16:                                               ; preds = %35, %14
  %17 = load i32, i32* %7, align 4
  %18 = load i32, i32* %3, align 4
  %19 = icmp sle i32 %17, %18
  br i1 %19, label %20, label %38

20:                                               ; preds = %16
  %21 = load i32, i32* %4, align 4
  %22 = load i32, i32* %5, align 4
  %23 = add nsw i32 %21, %22
  store i32 %23, i32* %4, align 4
  %24 = load i32, i32* %4, align 4
  %25 = load i32, i32* %5, align 4
  %26 = sub nsw i32 %24, %25
  store i32 %26, i32* %5, align 4
  %27 = load i32, i32* %4, align 4
  %28 = sitofp i32 %27 to double
  %29 = fmul double 1.000000e+00, %28
  %30 = load i32, i32* %5, align 4
  %31 = sitofp i32 %30 to double
  %32 = fdiv double %29, %31
  %33 = load double, double* %8, align 8
  %34 = fadd double %33, %32
  store double %34, double* %8, align 8
  br label %35

35:                                               ; preds = %20
  %36 = load i32, i32* %7, align 4
  %37 = add nsw i32 %36, 1
  store i32 %37, i32* %7, align 4
  br label %16

38:                                               ; preds = %16
  %39 = load double, double* %8, align 8
  %40 = call i32 (i8*, ...) @printf(i8* getelementptr inbounds ([6 x i8], [6 x i8]* @.str.1, i64 0, i64 0), double %39)
  br label %41

41:                                               ; preds = %38
  %42 = load i32, i32* %6, align 4
  %43 = add nsw i32 %42, 1
  store i32 %43, i32* %6, align 4
  br label %10

44:                                               ; preds = %10
  ret i32 0
}

declare dso_local i32 @__isoc99_scanf(i8*, ...) #1

declare dso_local i32 @printf(i8*, ...) #1


!llvm.module.flags = !{!0}
!llvm.ident = !{!1}

!0 = !{i32 1, !"wchar_size", i32 4}
!1 = !{!"clang version 10.0.0-4ubuntu1 "}
